; Function Attrs: nofree norecurse nounwind memory(argmem: readwrite) uwtable
define hidden zeroext i1 @_mi_bitmap_is_claimed_across(ptr noundef readonly captures(none) %0, i64 noundef %1, i64 noundef %2, i64 noundef %3) local_unnamed_addr #1 {
  %5 = lshr i64 %3, 6
  %6 = and i64 %3, 63
  %7 = add i64 %6, %2
  %8 = icmp ult i64 %7, 65
  br i1 %8, label %9, label %mi_bitmap_mask_.exit24.i.i, !prof !21

9:                                                ; preds = %4
  %10 = icmp ugt i64 %2, 63
  br i1 %10, label %._crit_edge.thread.i, label %11

11:                                               ; preds = %9
  %12 = icmp eq i64 %2, 0
  br i1 %12, label %._crit_edge.thread.i, label %13

13:                                               ; preds = %11
  %notmask.i.i.i = shl nsw i64 -1, %2
  %14 = xor i64 %notmask.i.i.i, -1
  %15 = shl i64 %14, %6
  br label %._crit_edge.thread.i

mi_bitmap_mask_.exit24.i.i:                       ; preds = %4
  %16 = sub nuw nsw i64 64, %6
  %17 = icmp eq i64 %6, 0
  %notmask.i22.i.i = shl nsw i64 -1, %16
  %18 = xor i64 %notmask.i22.i.i, -1
  %19 = shl i64 %18, %6
  %.0.i23.i.i = select i1 %17, i64 -1, i64 %19
  %20 = sub i64 %2, %16
  %21 = and i64 %20, 63
  %notmask.i25.i.i = shl nsw i64 -1, %21
  %22 = getelementptr inbounds nuw i64, ptr %0, i64 %5
  %23 = load atomic i64, ptr %22 monotonic, align 8
  %24 = and i64 %23, %.0.i23.i.i
  %.not.i = icmp eq i64 %24, %.0.i23.i.i
  %.02748.i = getelementptr inbounds nuw i8, ptr %22, i64 8
  %.not3049.i = icmp ult i64 %20, 64
  br i1 %.not3049.i, label %._crit_edge.i, label %.lr.ph.i.preheader

.lr.ph.i.preheader:                               ; preds = %mi_bitmap_mask_.exit24.i.i
  %25 = lshr i64 %20, 6
  br label %.lr.ph.i

._crit_edge.thread.i:                             ; preds = %13, %11, %9
  %.046.ph.i = phi i64 [ -1, %9 ], [ 0, %11 ], [ %15, %13 ]
  %26 = getelementptr inbounds nuw i64, ptr %0, i64 %5
  %27 = load atomic i64, ptr %26 monotonic, align 8
  %28 = and i64 %27, %.046.ph.i
  %.not61.i = icmp eq i64 %28, %.046.ph.i
  br label %mi_bitmap_is_claimedx_across.exit

.lr.ph.i:                                         ; preds = %.lr.ph.i.preheader, %.lr.ph.i
  %.02753.i = phi ptr [ %.027.i, %.lr.ph.i ], [ %.02748.i, %.lr.ph.i.preheader ]
  %.052.i = phi i64 [ %29, %.lr.ph.i ], [ %25, %.lr.ph.i.preheader ]
  %.151.i = phi i1 [ %spec.select37.i, %.lr.ph.i ], [ %.not.i, %.lr.ph.i.preheader ]
  %29 = add nsw i64 %.052.i, -1
  %30 = load atomic i64, ptr %.02753.i monotonic, align 8
  %.not35.i = icmp eq i64 %30, -1
  %spec.select37.i = select i1 %.not35.i, i1 %.151.i, i1 false
  %.027.i = getelementptr inbounds nuw i8, ptr %.02753.i, i64 8
  %.not30.i = icmp eq i64 %29, 0
  br i1 %.not30.i, label %._crit_edge.i, label %.lr.ph.i, !llvm.loop !24

._crit_edge.i:                                    ; preds = %.lr.ph.i, %mi_bitmap_mask_.exit24.i.i
  %.1.lcssa.i = phi i1 [ %.not.i, %mi_bitmap_mask_.exit24.i.i ], [ %spec.select37.i, %.lr.ph.i ]
  %.027.lcssa.i = phi ptr [ %.02748.i, %mi_bitmap_mask_.exit24.i.i ], [ %.027.i, %.lr.ph.i ]
  %.not31.i = icmp eq i64 %21, 0
  br i1 %.not31.i, label %mi_bitmap_is_claimedx_across.exit, label %31

31:                                               ; preds = %._crit_edge.i
  %32 = load atomic i64, ptr %.027.lcssa.i monotonic, align 8
  %33 = or i64 %32, %notmask.i25.i.i
  %.not32.i = icmp eq i64 %33, -1
  %spec.select38.i = select i1 %.not32.i, i1 %.1.lcssa.i, i1 false
  br label %mi_bitmap_is_claimedx_across.exit

mi_bitmap_is_claimedx_across.exit:                ; preds = %._crit_edge.thread.i, %._crit_edge.i, %31
  %.3.i = phi i1 [ %.1.lcssa.i, %._crit_edge.i ], [ %spec.select38.i, %31 ], [ %.not61.i, %._crit_edge.thread.i ]
  ret i1 %.3.i
}